(lp0
(lp1
S'18:07'
p2
aI42
aa(lp3
S'18:07'
p4
aI42
aa(lp5
S'18:07'
p6
aI42
aa(lp7
S'18:07'
p8
aI42
aa(lp9
S'18:07'
p10
aI42
aa(lp11
S'18:07'
p12
aI42
aa(lp13
S'18:07'
p14
aI41
aa(lp15
S'18:07'
p16
aI42
aa(lp17
S'18:07'
p18
aI41
aa(lp19
S'18:07'
p20
aI41
aa(lp21
S'18:07'
p22
aI41
aa(lp23
S'18:07'
p24
aI41
aa(lp25
S'18:08'
p26
aI41
aa(lp27
S'18:09'
p28
aI52
aa(lp29
S'18:09'
p30
aI41
aa(lp31
S'18:09'
p32
aI41
aa(lp33
S'18:09'
p34
aI41
aa(lp35
S'18:09'
p36
aI41
aa(lp37
S'18:09'
p38
aI41
aa(lp39
S'18:09'
p40
aI41
aa(lp41
S'18:09'
p42
aI41
aa(lp43
S'18:09'
p44
aI41
aa(lp45
S'18:09'
p46
aI42
aa(lp47
S'18:10'
p48
aI41
aa(lp49
S'18:10'
p50
aI40
aa(lp51
S'18:10'
p52
aI40
aa(lp53
S'18:10'
p54
aI40
aa(lp55
S'18:10'
p56
aI41
aa(lp57
S'18:10'
p58
aI40
aa(lp59
S'18:10'
p60
aI41
aa(lp61
S'18:10'
p62
aI41
aa(lp63
S'18:10'
p64
aI41
aa(lp65
S'18:10'
p66
aI40
aa(lp67
S'18:10'
p68
aI40
aa(lp69
S'18:10'
p70
aI40
aa(lp71
S'18:11'
p72
aI41
aa(lp73
S'18:11'
p74
aI40
aa(lp75
S'18:11'
p76
aI40
aa(lp77
S'18:11'
p78
aI40
aa(lp79
S'18:11'
p80
aI40
aa(lp81
S'18:11'
p82
aI40
aa(lp83
S'18:11'
p84
aI40
aa(lp85
S'18:11'
p86
aI40
aa(lp87
S'18:11'
p88
aI40
aa(lp89
S'18:11'
p90
aI40
aa(lp91
S'18:11'
p92
aI40
aa(lp93
S'18:11'
p94
aI40
aa(lp95
S'18:12'
p96
aI40
aa.